target datalayout = "e-m:e-p270:32:32-p271:32:32-p272:64:64-i64:64-i128:128-f80:128-n8:16:32:64-S128"
target triple = "x86_64-pc-linux-gnu"

%struct.lean_object = type { i32, i32 }

@l_Lake_mkMessageStringCore___lambda__3___closed__1 = internal global ptr null, align 8
@l_Lake_mkMessageStringCore___lambda__3___closed__2 = internal global ptr null, align 8
@l_Lake_mkMessageStringCore___lambda__3___closed__3 = internal global ptr null, align 8
@l_Lake_mkMessageStringCore___lambda__3___closed__4 = internal global ptr null, align 8

; Function Attrs: alwaysinline nounwind uwtable
define internal void @lean_dec_ref(ptr noundef %0) #1 {
  %2 = alloca ptr, align 8
  store ptr %0, ptr %2, align 8, !tbaa !4
  %3 = load ptr, ptr %2, align 8, !tbaa !4
  %4 = getelementptr inbounds nuw %struct.lean_object, ptr %3, i32 0, i32 0
  %5 = load i32, ptr %4, align 4, !tbaa !13
  %6 = icmp sgt i32 %5, 1
  %7 = zext i1 %6 to i32
  %8 = sext i32 %7 to i64
  %9 = call i64 @llvm.expect.i64(i64 %8, i64 1)
  %10 = icmp ne i64 %9, 0
  br i1 %10, label %11, label %16

11:                                               ; preds = %1
  %12 = load ptr, ptr %2, align 8, !tbaa !4
  %13 = getelementptr inbounds nuw %struct.lean_object, ptr %12, i32 0, i32 0
  %14 = load i32, ptr %13, align 4, !tbaa !13
  %15 = add i32 %14, -1
  store i32 %15, ptr %13, align 4, !tbaa !13
  br label %24

16:                                               ; preds = %1
  %17 = load ptr, ptr %2, align 8, !tbaa !4
  %18 = getelementptr inbounds nuw %struct.lean_object, ptr %17, i32 0, i32 0
  %19 = load i32, ptr %18, align 4, !tbaa !13
  %20 = icmp ne i32 %19, 0
  br i1 %20, label %21, label %23

21:                                               ; preds = %16
  %22 = load ptr, ptr %2, align 8, !tbaa !4
  call void @lean_dec_ref_cold(ptr noundef %22)
  br label %23

23:                                               ; preds = %21, %16
  br label %24

24:                                               ; preds = %23, %11
  ret void
}

; Function Attrs: alwaysinline nounwind uwtable
define internal zeroext i1 @lean_is_scalar(ptr noundef %0) #1 {
  %2 = alloca ptr, align 8
  store ptr %0, ptr %2, align 8, !tbaa !4
  %3 = load ptr, ptr %2, align 8, !tbaa !4
  %4 = ptrtoint ptr %3 to i64
  %5 = and i64 %4, 1
  %6 = icmp eq i64 %5, 1
  ret i1 %6
}

; Function Attrs: inlinehint nounwind uwtable
define internal ptr @lean_box(i64 noundef %0) #0 {
  %2 = alloca i64, align 8
  store i64 %0, ptr %2, align 8, !tbaa !11
  %3 = load i64, ptr %2, align 8, !tbaa !11
  %4 = shl i64 %3, 1
  %5 = or i64 %4, 1
  %6 = inttoptr i64 %5 to ptr
  ret ptr %6
}

; Function Attrs: alwaysinline nounwind uwtable
define internal void @lean_dec(ptr noundef %0) #1 {
  %2 = alloca ptr, align 8
  store ptr %0, ptr %2, align 8, !tbaa !4
  %3 = load ptr, ptr %2, align 8, !tbaa !4
  %4 = call zeroext i1 @lean_is_scalar(ptr noundef %3)
  br i1 %4, label %7, label %5

5:                                                ; preds = %1
  %6 = load ptr, ptr %2, align 8, !tbaa !4
  call void @lean_dec_ref(ptr noundef %6)
  br label %7

7:                                                ; preds = %5, %1
  ret void
}

; Function Attrs: nounwind uwtable
define ptr @l_Lake_mkMessageStringCore___lambda__3(i8 noundef zeroext %0, i8 noundef zeroext %1, ptr noundef %2, ptr noundef %3, ptr noundef %4, ptr noundef %5, ptr noundef %6) #2 {
  %8 = alloca ptr, align 8
  %9 = alloca i8, align 1
  %10 = alloca i8, align 1
  %11 = alloca ptr, align 8
  %12 = alloca ptr, align 8
  %13 = alloca ptr, align 8
  %14 = alloca ptr, align 8
  %15 = alloca ptr, align 8
  %16 = alloca ptr, align 8
  %17 = alloca ptr, align 8
  %18 = alloca ptr, align 8
  %19 = alloca i32, align 4
  %20 = alloca ptr, align 8
  %21 = alloca ptr, align 8
  %22 = alloca ptr, align 8
  %23 = alloca ptr, align 8
  %24 = alloca ptr, align 8
  %25 = alloca ptr, align 8
  %26 = alloca ptr, align 8
  %27 = alloca ptr, align 8
  %28 = alloca ptr, align 8
  %29 = alloca ptr, align 8
  %30 = alloca ptr, align 8
  %31 = alloca ptr, align 8
  %32 = alloca ptr, align 8
  %33 = alloca ptr, align 8
  %34 = alloca ptr, align 8
  store i8 %0, ptr %9, align 1, !tbaa !10
  store i8 %1, ptr %10, align 1, !tbaa !10
  store ptr %2, ptr %11, align 8, !tbaa !4
  store ptr %3, ptr %12, align 8, !tbaa !4
  store ptr %4, ptr %13, align 8, !tbaa !4
  store ptr %5, ptr %14, align 8, !tbaa !4
  store ptr %6, ptr %15, align 8, !tbaa !4
  br label %35

35:                                               ; preds = %7
  call void @llvm.lifetime.start.p0(i64 8, ptr %16) #7
  %36 = load ptr, ptr @l_Lake_mkMessageStringCore___lambda__3___closed__1, align 8, !tbaa !4
  store ptr %36, ptr %16, align 8, !tbaa !4
  %37 = load i8, ptr %9, align 1, !tbaa !10
  %38 = zext i8 %37 to i32
  switch i32 %38, label %86 [
    i32 0, label %39
    i32 1, label %69
  ]

39:                                               ; preds = %35
  %40 = load i8, ptr %10, align 1, !tbaa !10
  %41 = zext i8 %40 to i32
  %42 = icmp eq i32 %41, 0
  br i1 %42, label %43, label %52

43:                                               ; preds = %39
  call void @llvm.lifetime.start.p0(i64 8, ptr %17) #7
  call void @llvm.lifetime.start.p0(i64 8, ptr %18) #7
  %44 = load ptr, ptr %13, align 8, !tbaa !4
  call void @lean_dec(ptr noundef %44)
  %45 = load ptr, ptr %12, align 8, !tbaa !4
  call void @lean_dec(ptr noundef %45)
  %46 = call ptr @lean_box(i64 noundef 0)
  store ptr %46, ptr %17, align 8, !tbaa !4
  %47 = load ptr, ptr %16, align 8, !tbaa !4
  %48 = load ptr, ptr %14, align 8, !tbaa !4
  %49 = load ptr, ptr %17, align 8, !tbaa !4
  %50 = call ptr @lean_apply_2(ptr noundef %47, ptr noundef %48, ptr noundef %49)
  store ptr %50, ptr %18, align 8, !tbaa !4
  %51 = load ptr, ptr %18, align 8, !tbaa !4
  store ptr %51, ptr %8, align 8
  store i32 1, ptr %19, align 4
  call void @llvm.lifetime.end.p0(i64 8, ptr %18) #7
  call void @llvm.lifetime.end.p0(i64 8, ptr %17) #7
  br label %103

52:                                               ; preds = %39
  call void @llvm.lifetime.start.p0(i64 8, ptr %20) #7
  call void @llvm.lifetime.start.p0(i64 8, ptr %21) #7
  call void @llvm.lifetime.start.p0(i64 8, ptr %22) #7
  call void @llvm.lifetime.start.p0(i64 8, ptr %23) #7
  call void @llvm.lifetime.start.p0(i64 8, ptr %24) #7
  %53 = load ptr, ptr @l_Lake_mkMessageStringCore___lambda__3___closed__2, align 8, !tbaa !4
  store ptr %53, ptr %20, align 8, !tbaa !4
  %54 = load ptr, ptr %11, align 8, !tbaa !4
  %55 = load ptr, ptr %12, align 8, !tbaa !4
  %56 = load ptr, ptr %20, align 8, !tbaa !4
  %57 = load ptr, ptr %13, align 8, !tbaa !4
  %58 = call ptr @l_Lean_mkErrorStringWithPos(ptr noundef %54, ptr noundef %55, ptr noundef %56, ptr noundef %57)
  store ptr %58, ptr %21, align 8, !tbaa !4
  %59 = load ptr, ptr %21, align 8, !tbaa !4
  %60 = load ptr, ptr %14, align 8, !tbaa !4
  %61 = call ptr @lean_string_append(ptr noundef %59, ptr noundef %60)
  store ptr %61, ptr %22, align 8, !tbaa !4
  %62 = load ptr, ptr %14, align 8, !tbaa !4
  call void @lean_dec(ptr noundef %62)
  %63 = call ptr @lean_box(i64 noundef 0)
  store ptr %63, ptr %23, align 8, !tbaa !4
  %64 = load ptr, ptr %16, align 8, !tbaa !4
  %65 = load ptr, ptr %22, align 8, !tbaa !4
  %66 = load ptr, ptr %23, align 8, !tbaa !4
  %67 = call ptr @lean_apply_2(ptr noundef %64, ptr noundef %65, ptr noundef %66)
  store ptr %67, ptr %24, align 8, !tbaa !4
  %68 = load ptr, ptr %24, align 8, !tbaa !4
  store ptr %68, ptr %8, align 8
  store i32 1, ptr %19, align 4
  call void @llvm.lifetime.end.p0(i64 8, ptr %24) #7
  call void @llvm.lifetime.end.p0(i64 8, ptr %23) #7
  call void @llvm.lifetime.end.p0(i64 8, ptr %22) #7
  call void @llvm.lifetime.end.p0(i64 8, ptr %21) #7
  call void @llvm.lifetime.end.p0(i64 8, ptr %20) #7
  br label %103

69:                                               ; preds = %35
  call void @llvm.lifetime.start.p0(i64 8, ptr %25) #7
  call void @llvm.lifetime.start.p0(i64 8, ptr %26) #7
  call void @llvm.lifetime.start.p0(i64 8, ptr %27) #7
  call void @llvm.lifetime.start.p0(i64 8, ptr %28) #7
  call void @llvm.lifetime.start.p0(i64 8, ptr %29) #7
  %70 = load ptr, ptr @l_Lake_mkMessageStringCore___lambda__3___closed__3, align 8, !tbaa !4
  store ptr %70, ptr %25, align 8, !tbaa !4
  %71 = load ptr, ptr %11, align 8, !tbaa !4
  %72 = load ptr, ptr %12, align 8, !tbaa !4
  %73 = load ptr, ptr %25, align 8, !tbaa !4
  %74 = load ptr, ptr %13, align 8, !tbaa !4
  %75 = call ptr @l_Lean_mkErrorStringWithPos(ptr noundef %71, ptr noundef %72, ptr noundef %73, ptr noundef %74)
  store ptr %75, ptr %26, align 8, !tbaa !4
  %76 = load ptr, ptr %26, align 8, !tbaa !4
  %77 = load ptr, ptr %14, align 8, !tbaa !4
  %78 = call ptr @lean_string_append(ptr noundef %76, ptr noundef %77)
  store ptr %78, ptr %27, align 8, !tbaa !4
  %79 = load ptr, ptr %14, align 8, !tbaa !4
  call void @lean_dec(ptr noundef %79)
  %80 = call ptr @lean_box(i64 noundef 0)
  store ptr %80, ptr %28, align 8, !tbaa !4
  %81 = load ptr, ptr %16, align 8, !tbaa !4
  %82 = load ptr, ptr %27, align 8, !tbaa !4
  %83 = load ptr, ptr %28, align 8, !tbaa !4
  %84 = call ptr @lean_apply_2(ptr noundef %81, ptr noundef %82, ptr noundef %83)
  store ptr %84, ptr %29, align 8, !tbaa !4
  %85 = load ptr, ptr %29, align 8, !tbaa !4
  store ptr %85, ptr %8, align 8
  store i32 1, ptr %19, align 4
  call void @llvm.lifetime.end.p0(i64 8, ptr %29) #7
  call void @llvm.lifetime.end.p0(i64 8, ptr %28) #7
  call void @llvm.lifetime.end.p0(i64 8, ptr %27) #7
  call void @llvm.lifetime.end.p0(i64 8, ptr %26) #7
  call void @llvm.lifetime.end.p0(i64 8, ptr %25) #7
  br label %103

86:                                               ; preds = %35
  call void @llvm.lifetime.start.p0(i64 8, ptr %30) #7
  call void @llvm.lifetime.start.p0(i64 8, ptr %31) #7
  call void @llvm.lifetime.start.p0(i64 8, ptr %32) #7
  call void @llvm.lifetime.start.p0(i64 8, ptr %33) #7
  call void @llvm.lifetime.start.p0(i64 8, ptr %34) #7
  %87 = load ptr, ptr @l_Lake_mkMessageStringCore___lambda__3___closed__4, align 8, !tbaa !4
  store ptr %87, ptr %30, align 8, !tbaa !4
  %88 = load ptr, ptr %11, align 8, !tbaa !4
  %89 = load ptr, ptr %12, align 8, !tbaa !4
  %90 = load ptr, ptr %30, align 8, !tbaa !4
  %91 = load ptr, ptr %13, align 8, !tbaa !4
  %92 = call ptr @l_Lean_mkErrorStringWithPos(ptr noundef %88, ptr noundef %89, ptr noundef %90, ptr noundef %91)
  store ptr %92, ptr %31, align 8, !tbaa !4
  %93 = load ptr, ptr %31, align 8, !tbaa !4
  %94 = load ptr, ptr %14, align 8, !tbaa !4
  %95 = call ptr @lean_string_append(ptr noundef %93, ptr noundef %94)
  store ptr %95, ptr %32, align 8, !tbaa !4
  %96 = load ptr, ptr %14, align 8, !tbaa !4
  call void @lean_dec(ptr noundef %96)
  %97 = call ptr @lean_box(i64 noundef 0)
  store ptr %97, ptr %33, align 8, !tbaa !4
  %98 = load ptr, ptr %16, align 8, !tbaa !4
  %99 = load ptr, ptr %32, align 8, !tbaa !4
  %100 = load ptr, ptr %33, align 8, !tbaa !4
  %101 = call ptr @lean_apply_2(ptr noundef %98, ptr noundef %99, ptr noundef %100)
  store ptr %101, ptr %34, align 8, !tbaa !4
  %102 = load ptr, ptr %34, align 8, !tbaa !4
  store ptr %102, ptr %8, align 8
  store i32 1, ptr %19, align 4
  call void @llvm.lifetime.end.p0(i64 8, ptr %34) #7
  call void @llvm.lifetime.end.p0(i64 8, ptr %33) #7
  call void @llvm.lifetime.end.p0(i64 8, ptr %32) #7
  call void @llvm.lifetime.end.p0(i64 8, ptr %31) #7
  call void @llvm.lifetime.end.p0(i64 8, ptr %30) #7
  br label %103

103:                                              ; preds = %86, %69, %52, %43
  call void @llvm.lifetime.end.p0(i64 8, ptr %16) #7
  %104 = load ptr, ptr %8, align 8
  ret ptr %104
}