; Function Attrs: nounwind uwtable
define ptr @l_Lake_mkMessageStringCore___lambda__3(i8 noundef zeroext %0, i8 noundef zeroext %1, ptr noundef %2, ptr noundef %3, ptr noundef %4, ptr noundef %5, ptr readnone captures(none) %6) local_unnamed_addr #0 {
  %8 = load ptr, ptr @l_Lake_mkMessageStringCore___lambda__3___closed__1, align 8, !tbaa !4
  switch i8 %0, label %56 [
    i8 0, label %9
    i8 1, label %43
  ]

9:                                                ; preds = %7
  %10 = icmp eq i8 %1, 0
  br i1 %10, label %11, label %30

11:                                               ; preds = %9
  %12 = ptrtoint ptr %4 to i64
  %13 = and i64 %12, 1
  %.not54 = icmp eq i64 %13, 0
  br i1 %.not54, label %14, label %lean_dec.exit44

14:                                               ; preds = %11
  %15 = load i32, ptr %4, align 4, !tbaa !8
  %16 = icmp sgt i32 %15, 1
  br i1 %16, label %17, label %19, !prof !11

17:                                               ; preds = %14
  %18 = add nsw i32 %15, -1
  store i32 %18, ptr %4, align 4, !tbaa !8
  br label %lean_dec.exit44

19:                                               ; preds = %14
  %.not.i = icmp eq i32 %15, 0
  br i1 %.not.i, label %lean_dec.exit44, label %20

20:                                               ; preds = %19
  tail call void @lean_dec_ref_cold(ptr noundef nonnull %4) #3
  br label %lean_dec.exit44

lean_dec.exit44:                                  ; preds = %20, %19, %17, %11
  %21 = ptrtoint ptr %3 to i64
  %22 = and i64 %21, 1
  %.not55 = icmp eq i64 %22, 0
  br i1 %.not55, label %23, label %lean_dec.exit43

23:                                               ; preds = %lean_dec.exit44
  %24 = load i32, ptr %3, align 4, !tbaa !8
  %25 = icmp sgt i32 %24, 1
  br i1 %25, label %26, label %28, !prof !11

26:                                               ; preds = %23
  %27 = add nsw i32 %24, -1
  store i32 %27, ptr %3, align 4, !tbaa !8
  br label %lean_dec.exit43

28:                                               ; preds = %23
  %.not.i45 = icmp eq i32 %24, 0
  br i1 %.not.i45, label %lean_dec.exit43, label %29

29:                                               ; preds = %28
  tail call void @lean_dec_ref_cold(ptr noundef nonnull %3) #3
  br label %lean_dec.exit43

30:                                               ; preds = %9
  %31 = load ptr, ptr @l_Lake_mkMessageStringCore___lambda__3___closed__2, align 8, !tbaa !4
  %32 = tail call ptr @l_Lean_mkErrorStringWithPos(ptr noundef %2, ptr noundef %3, ptr noundef %31, ptr noundef %4) #3
  %33 = tail call ptr @lean_string_append(ptr noundef %32, ptr noundef %5) #3
  %34 = ptrtoint ptr %5 to i64
  %35 = and i64 %34, 1
  %.not53 = icmp eq i64 %35, 0
  br i1 %.not53, label %36, label %lean_dec.exit43

36:                                               ; preds = %30
  %37 = load i32, ptr %5, align 4, !tbaa !8
  %38 = icmp sgt i32 %37, 1
  br i1 %38, label %39, label %41, !prof !11

39:                                               ; preds = %36
  %40 = add nsw i32 %37, -1
  store i32 %40, ptr %5, align 4, !tbaa !8
  br label %lean_dec.exit43

41:                                               ; preds = %36
  %.not.i47 = icmp eq i32 %37, 0
  br i1 %.not.i47, label %lean_dec.exit43, label %42

42:                                               ; preds = %41
  tail call void @lean_dec_ref_cold(ptr noundef nonnull %5) #3
  br label %lean_dec.exit43

43:                                               ; preds = %7
  %44 = load ptr, ptr @l_Lake_mkMessageStringCore___lambda__3___closed__3, align 8, !tbaa !4
  %45 = tail call ptr @l_Lean_mkErrorStringWithPos(ptr noundef %2, ptr noundef %3, ptr noundef %44, ptr noundef %4) #3
  %46 = tail call ptr @lean_string_append(ptr noundef %45, ptr noundef %5) #3
  %47 = ptrtoint ptr %5 to i64
  %48 = and i64 %47, 1
  %.not = icmp eq i64 %48, 0
  br i1 %.not, label %49, label %lean_dec.exit43

49:                                               ; preds = %43
  %50 = load i32, ptr %5, align 4, !tbaa !8
  %51 = icmp sgt i32 %50, 1
  br i1 %51, label %52, label %54, !prof !11

52:                                               ; preds = %49
  %53 = add nsw i32 %50, -1
  store i32 %53, ptr %5, align 4, !tbaa !8
  br label %lean_dec.exit43

54:                                               ; preds = %49
  %.not.i49 = icmp eq i32 %50, 0
  br i1 %.not.i49, label %lean_dec.exit43, label %55

55:                                               ; preds = %54
  tail call void @lean_dec_ref_cold(ptr noundef nonnull %5) #3
  br label %lean_dec.exit43

56:                                               ; preds = %7
  %57 = load ptr, ptr @l_Lake_mkMessageStringCore___lambda__3___closed__4, align 8, !tbaa !4
  %58 = tail call ptr @l_Lean_mkErrorStringWithPos(ptr noundef %2, ptr noundef %3, ptr noundef %57, ptr noundef %4) #3
  %59 = tail call ptr @lean_string_append(ptr noundef %58, ptr noundef %5) #3
  %60 = ptrtoint ptr %5 to i64
  %61 = and i64 %60, 1
  %.not56 = icmp eq i64 %61, 0
  br i1 %.not56, label %62, label %lean_dec.exit43

62:                                               ; preds = %56
  %63 = load i32, ptr %5, align 4, !tbaa !8
  %64 = icmp sgt i32 %63, 1
  br i1 %64, label %65, label %67, !prof !11

65:                                               ; preds = %62
  %66 = add nsw i32 %63, -1
  store i32 %66, ptr %5, align 4, !tbaa !8
  br label %lean_dec.exit43

67:                                               ; preds = %62
  %.not.i51 = icmp eq i32 %63, 0
  br i1 %.not.i51, label %lean_dec.exit43, label %68

68:                                               ; preds = %67
  tail call void @lean_dec_ref_cold(ptr noundef nonnull %5) #3
  br label %lean_dec.exit43

lean_dec.exit43:                                  ; preds = %56, %65, %67, %68, %43, %52, %54, %55, %30, %39, %41, %42, %lean_dec.exit44, %26, %28, %29
  %.sink = phi ptr [ %5, %29 ], [ %5, %28 ], [ %5, %26 ], [ %5, %lean_dec.exit44 ], [ %33, %42 ], [ %33, %41 ], [ %33, %39 ], [ %33, %30 ], [ %46, %55 ], [ %46, %54 ], [ %46, %52 ], [ %46, %43 ], [ %59, %68 ], [ %59, %67 ], [ %59, %65 ], [ %59, %56 ]
  %69 = tail call ptr @lean_apply_2(ptr noundef %8, ptr noundef %.sink, ptr noundef nonnull inttoptr (i64 1 to ptr)) #3
  ret ptr %69
}